target datalayout = "e-m:e-p270:32:32-p271:32:32-p272:64:64-i64:64-i128:128-f80:128-n8:16:32:64-S128"
target triple = "x86_64-pc-linux-gnu"

%struct.opj_thread_t = type { ptr, ptr, i64 }

; Function Attrs: nounwind uwtable
define hidden void @opj_thread_join(ptr noundef %0) #0 {
  %2 = alloca ptr, align 8
  %3 = alloca ptr, align 8
  store ptr %0, ptr %2, align 8, !tbaa !13
  call void @llvm.lifetime.start.p0(i64 8, ptr %3) #4
  %4 = load ptr, ptr %2, align 8, !tbaa !13
  %5 = getelementptr inbounds nuw %struct.opj_thread_t, ptr %4, i32 0, i32 2
  %6 = load i64, ptr %5, align 8, !tbaa !19
  %7 = call i32 @pthread_join(i64 noundef %6, ptr noundef %3)
  %8 = load ptr, ptr %2, align 8, !tbaa !13
  call void @opj_free(ptr noundef %8)
  call void @llvm.lifetime.end.p0(i64 8, ptr %3) #4
  ret void
}