; Function Attrs: nounwind uwtable
define hidden void @opj_thread_join(ptr noundef %0) local_unnamed_addr #1 {
  %2 = alloca ptr, align 8
  call void @llvm.lifetime.start.p0(i64 8, ptr nonnull %2) #8
  %3 = getelementptr inbounds nuw i8, ptr %0, i64 16
  %4 = load i64, ptr %3, align 8, !tbaa !10
  %5 = call i32 @pthread_join(i64 noundef %4, ptr noundef nonnull %2) #8
  call void @opj_free(ptr noundef %0) #8
  call void @llvm.lifetime.end.p0(i64 8, ptr nonnull %2) #8
  ret void
}